; Function Attrs: mustprogress nofree norecurse nosync nounwind sspstrong willreturn memory(read, inaccessiblemem: none) uwtable
define hidden range(i32 0, 2) i32 @rb_IMEMO_TYPE_P(i64 noundef %0, i32 noundef %1) local_unnamed_addr #4 {
  %3 = icmp eq i64 %0, 0
  %4 = and i64 %0, 7
  %5 = icmp ne i64 %4, 0
  %6 = or i1 %3, %5
  br i1 %6, label %imemo_type_p.exit, label %7, !prof !113

7:                                                ; preds = %2
  %8 = shl i32 %1, 12
  %9 = or disjoint i32 %8, 26
  %10 = zext i32 %9 to i64
  %11 = inttoptr i64 %0 to ptr
  %12 = load i64, ptr %11, align 8, !tbaa !11
  %13 = and i64 %12, 61471
  %14 = icmp eq i64 %13, %10
  %15 = zext i1 %14 to i32
  br label %imemo_type_p.exit

imemo_type_p.exit:                                ; preds = %2, %7
  %.0.i = phi i32 [ %15, %7 ], [ 0, %2 ]
  ret i32 %.0.i
}